target datalayout = "e-m:e-p270:32:32-p271:32:32-p272:64:64-i64:64-i128:128-f80:128-n8:16:32:64-S128"
target triple = "x86_64-pc-linux-gnu"

%struct.lbtrm_tag_entry_t = type { ptr, ptr, i32, ptr, i32, i32, i32, i32, i32, i32, i32, ptr, i32, ptr, i32 }

; Function Attrs: null_pointer_is_valid sspstrong uwtable
define internal ptr @lbtrm_tag_copy_cb(ptr noundef %0, ptr noundef %1, i64 noundef %2) #0 {
  %4 = alloca ptr, align 8
  %5 = alloca ptr, align 8
  %6 = alloca i64, align 8
  %7 = alloca ptr, align 8
  %8 = alloca ptr, align 8
  store ptr %0, ptr %4, align 8
  store ptr %1, ptr %5, align 8
  store i64 %2, ptr %6, align 8
  call void @llvm.lifetime.start.p0(i64 8, ptr %7) #9
  %9 = load ptr, ptr %5, align 8
  store ptr %9, ptr %7, align 8
  call void @llvm.lifetime.start.p0(i64 8, ptr %8) #9
  %10 = load ptr, ptr %4, align 8
  store ptr %10, ptr %8, align 8
  %11 = load ptr, ptr %7, align 8
  %12 = getelementptr inbounds nuw %struct.lbtrm_tag_entry_t, ptr %11, i32 0, i32 0
  %13 = load ptr, ptr %12, align 8
  %14 = call noalias ptr @g_strdup(ptr noundef %13)
  %15 = load ptr, ptr %8, align 8
  %16 = getelementptr inbounds nuw %struct.lbtrm_tag_entry_t, ptr %15, i32 0, i32 0
  store ptr %14, ptr %16, align 8
  %17 = load ptr, ptr %7, align 8
  %18 = getelementptr inbounds nuw %struct.lbtrm_tag_entry_t, ptr %17, i32 0, i32 1
  %19 = load ptr, ptr %18, align 8
  %20 = call noalias ptr @g_strdup(ptr noundef %19)
  %21 = load ptr, ptr %8, align 8
  %22 = getelementptr inbounds nuw %struct.lbtrm_tag_entry_t, ptr %21, i32 0, i32 1
  store ptr %20, ptr %22, align 8
  %23 = load ptr, ptr %7, align 8
  %24 = getelementptr inbounds nuw %struct.lbtrm_tag_entry_t, ptr %23, i32 0, i32 2
  %25 = load i32, ptr %24, align 8
  %26 = load ptr, ptr %8, align 8
  %27 = getelementptr inbounds nuw %struct.lbtrm_tag_entry_t, ptr %26, i32 0, i32 2
  store i32 %25, ptr %27, align 8
  %28 = load ptr, ptr %7, align 8
  %29 = getelementptr inbounds nuw %struct.lbtrm_tag_entry_t, ptr %28, i32 0, i32 3
  %30 = load ptr, ptr %29, align 8
  %31 = call noalias ptr @g_strdup(ptr noundef %30)
  %32 = load ptr, ptr %8, align 8
  %33 = getelementptr inbounds nuw %struct.lbtrm_tag_entry_t, ptr %32, i32 0, i32 3
  store ptr %31, ptr %33, align 8
  %34 = load ptr, ptr %7, align 8
  %35 = getelementptr inbounds nuw %struct.lbtrm_tag_entry_t, ptr %34, i32 0, i32 4
  %36 = load i32, ptr %35, align 8
  %37 = load ptr, ptr %8, align 8
  %38 = getelementptr inbounds nuw %struct.lbtrm_tag_entry_t, ptr %37, i32 0, i32 4
  store i32 %36, ptr %38, align 8
  %39 = load ptr, ptr %7, align 8
  %40 = getelementptr inbounds nuw %struct.lbtrm_tag_entry_t, ptr %39, i32 0, i32 5
  %41 = load i32, ptr %40, align 4
  %42 = load ptr, ptr %8, align 8
  %43 = getelementptr inbounds nuw %struct.lbtrm_tag_entry_t, ptr %42, i32 0, i32 5
  store i32 %41, ptr %43, align 4
  %44 = load ptr, ptr %7, align 8
  %45 = getelementptr inbounds nuw %struct.lbtrm_tag_entry_t, ptr %44, i32 0, i32 6
  %46 = load i32, ptr %45, align 8
  %47 = load ptr, ptr %8, align 8
  %48 = getelementptr inbounds nuw %struct.lbtrm_tag_entry_t, ptr %47, i32 0, i32 6
  store i32 %46, ptr %48, align 8
  %49 = load ptr, ptr %7, align 8
  %50 = getelementptr inbounds nuw %struct.lbtrm_tag_entry_t, ptr %49, i32 0, i32 7
  %51 = load i32, ptr %50, align 4
  %52 = load ptr, ptr %8, align 8
  %53 = getelementptr inbounds nuw %struct.lbtrm_tag_entry_t, ptr %52, i32 0, i32 7
  store i32 %51, ptr %53, align 4
  %54 = load ptr, ptr %7, align 8
  %55 = getelementptr inbounds nuw %struct.lbtrm_tag_entry_t, ptr %54, i32 0, i32 8
  %56 = load i32, ptr %55, align 8
  %57 = load ptr, ptr %8, align 8
  %58 = getelementptr inbounds nuw %struct.lbtrm_tag_entry_t, ptr %57, i32 0, i32 8
  store i32 %56, ptr %58, align 8
  %59 = load ptr, ptr %7, align 8
  %60 = getelementptr inbounds nuw %struct.lbtrm_tag_entry_t, ptr %59, i32 0, i32 9
  %61 = load i32, ptr %60, align 4
  %62 = load ptr, ptr %8, align 8
  %63 = getelementptr inbounds nuw %struct.lbtrm_tag_entry_t, ptr %62, i32 0, i32 9
  store i32 %61, ptr %63, align 4
  %64 = load ptr, ptr %7, align 8
  %65 = getelementptr inbounds nuw %struct.lbtrm_tag_entry_t, ptr %64, i32 0, i32 10
  %66 = load i32, ptr %65, align 8
  %67 = load ptr, ptr %8, align 8
  %68 = getelementptr inbounds nuw %struct.lbtrm_tag_entry_t, ptr %67, i32 0, i32 10
  store i32 %66, ptr %68, align 8
  %69 = load ptr, ptr %7, align 8
  %70 = getelementptr inbounds nuw %struct.lbtrm_tag_entry_t, ptr %69, i32 0, i32 11
  %71 = load ptr, ptr %70, align 8
  %72 = call noalias ptr @g_strdup(ptr noundef %71)
  %73 = load ptr, ptr %8, align 8
  %74 = getelementptr inbounds nuw %struct.lbtrm_tag_entry_t, ptr %73, i32 0, i32 11
  store ptr %72, ptr %74, align 8
  %75 = load ptr, ptr %7, align 8
  %76 = getelementptr inbounds nuw %struct.lbtrm_tag_entry_t, ptr %75, i32 0, i32 12
  %77 = load i32, ptr %76, align 8
  %78 = load ptr, ptr %8, align 8
  %79 = getelementptr inbounds nuw %struct.lbtrm_tag_entry_t, ptr %78, i32 0, i32 12
  store i32 %77, ptr %79, align 8
  %80 = load ptr, ptr %7, align 8
  %81 = getelementptr inbounds nuw %struct.lbtrm_tag_entry_t, ptr %80, i32 0, i32 13
  %82 = load ptr, ptr %81, align 8
  %83 = call noalias ptr @g_strdup(ptr noundef %82)
  %84 = load ptr, ptr %8, align 8
  %85 = getelementptr inbounds nuw %struct.lbtrm_tag_entry_t, ptr %84, i32 0, i32 13
  store ptr %83, ptr %85, align 8
  %86 = load ptr, ptr %7, align 8
  %87 = getelementptr inbounds nuw %struct.lbtrm_tag_entry_t, ptr %86, i32 0, i32 14
  %88 = load i32, ptr %87, align 8
  %89 = load ptr, ptr %8, align 8
  %90 = getelementptr inbounds nuw %struct.lbtrm_tag_entry_t, ptr %89, i32 0, i32 14
  store i32 %88, ptr %90, align 8
  %91 = load ptr, ptr %8, align 8
  call void @llvm.lifetime.end.p0(i64 8, ptr %8) #9
  call void @llvm.lifetime.end.p0(i64 8, ptr %7) #9
  ret ptr %91
}