; Function Attrs: null_pointer_is_valid sspstrong uwtable
define internal noundef ptr @lbtrm_tag_copy_cb(ptr noundef returned writeonly captures(ret: address, provenance) initializes((0, 20), (24, 60), (64, 76), (80, 92)) %0, ptr noundef readonly captures(none) %1, i64 %2) #0 {
  %4 = load ptr, ptr %1, align 8
  %5 = tail call noalias ptr @g_strdup(ptr noundef %4)
  store ptr %5, ptr %0, align 8
  %6 = getelementptr inbounds nuw i8, ptr %1, i64 8
  %7 = load ptr, ptr %6, align 8
  %8 = tail call noalias ptr @g_strdup(ptr noundef %7)
  %9 = getelementptr inbounds nuw i8, ptr %0, i64 8
  store ptr %8, ptr %9, align 8
  %10 = getelementptr inbounds nuw i8, ptr %1, i64 16
  %11 = load i32, ptr %10, align 8
  %12 = getelementptr inbounds nuw i8, ptr %0, i64 16
  store i32 %11, ptr %12, align 8
  %13 = getelementptr inbounds nuw i8, ptr %1, i64 24
  %14 = load ptr, ptr %13, align 8
  %15 = tail call noalias ptr @g_strdup(ptr noundef %14)
  %16 = getelementptr inbounds nuw i8, ptr %0, i64 24
  store ptr %15, ptr %16, align 8
  %17 = getelementptr inbounds nuw i8, ptr %1, i64 32
  %18 = load i32, ptr %17, align 8
  %19 = getelementptr inbounds nuw i8, ptr %0, i64 32
  store i32 %18, ptr %19, align 8
  %20 = getelementptr inbounds nuw i8, ptr %1, i64 36
  %21 = load i32, ptr %20, align 4
  %22 = getelementptr inbounds nuw i8, ptr %0, i64 36
  store i32 %21, ptr %22, align 4
  %23 = getelementptr inbounds nuw i8, ptr %1, i64 40
  %24 = load i32, ptr %23, align 8
  %25 = getelementptr inbounds nuw i8, ptr %0, i64 40
  store i32 %24, ptr %25, align 8
  %26 = getelementptr inbounds nuw i8, ptr %1, i64 44
  %27 = load i32, ptr %26, align 4
  %28 = getelementptr inbounds nuw i8, ptr %0, i64 44
  store i32 %27, ptr %28, align 4
  %29 = getelementptr inbounds nuw i8, ptr %1, i64 48
  %30 = load i32, ptr %29, align 8
  %31 = getelementptr inbounds nuw i8, ptr %0, i64 48
  store i32 %30, ptr %31, align 8
  %32 = getelementptr inbounds nuw i8, ptr %1, i64 52
  %33 = load i32, ptr %32, align 4
  %34 = getelementptr inbounds nuw i8, ptr %0, i64 52
  store i32 %33, ptr %34, align 4
  %35 = getelementptr inbounds nuw i8, ptr %1, i64 56
  %36 = load i32, ptr %35, align 8
  %37 = getelementptr inbounds nuw i8, ptr %0, i64 56
  store i32 %36, ptr %37, align 8
  %38 = getelementptr inbounds nuw i8, ptr %1, i64 64
  %39 = load ptr, ptr %38, align 8
  %40 = tail call noalias ptr @g_strdup(ptr noundef %39)
  %41 = getelementptr inbounds nuw i8, ptr %0, i64 64
  store ptr %40, ptr %41, align 8
  %42 = getelementptr inbounds nuw i8, ptr %1, i64 72
  %43 = load i32, ptr %42, align 8
  %44 = getelementptr inbounds nuw i8, ptr %0, i64 72
  store i32 %43, ptr %44, align 8
  %45 = getelementptr inbounds nuw i8, ptr %1, i64 80
  %46 = load ptr, ptr %45, align 8
  %47 = tail call noalias ptr @g_strdup(ptr noundef %46)
  %48 = getelementptr inbounds nuw i8, ptr %0, i64 80
  store ptr %47, ptr %48, align 8
  %49 = getelementptr inbounds nuw i8, ptr %1, i64 88
  %50 = load i32, ptr %49, align 8
  %51 = getelementptr inbounds nuw i8, ptr %0, i64 88
  store i32 %50, ptr %51, align 8
  ret ptr %0
}